; Function Attrs: mustprogress nofree norecurse nosync nounwind willreturn memory(readwrite, inaccessiblemem: none) uwtable
define internal fastcc void @"_ZZN8facebook5velox12_GLOBAL__N_120selectBaseRowsToLoadERKNS0_13DecodedVectorERNS0_17SelectivityVectorERKS5_ENK3$_0clEi"(ptr nocapture readonly %this.0.val, ptr nocapture %this.8.val, i32 noundef %row) unnamed_addr #15 align 2 {
entry:
  %nulls_.i = getelementptr inbounds i8, ptr %this.0.val, i64 24
  %0 = load ptr, ptr %nulls_.i, align 8
  %tobool.not.i = icmp eq ptr %0, null
  %isIdentityMapping_.i2.phi.trans.insert = getelementptr inbounds i8, ptr %this.0.val, i64 58
  %.pre = load i8, ptr %isIdentityMapping_.i2.phi.trans.insert, align 2
  br i1 %tobool.not.i, label %if.then, label %if.end.i

if.end.i:                                         ; preds = %entry
  %1 = and i8 %.pre, 1
  %tobool2.not.i = icmp eq i8 %1, 0
  br i1 %tobool2.not.i, label %lor.lhs.false.i, label %if.then4.i

lor.lhs.false.i:                                  ; preds = %if.end.i
  %hasExtraNulls_.i = getelementptr inbounds i8, ptr %this.0.val, i64 57
  %2 = load i8, ptr %hasExtraNulls_.i, align 1
  %3 = and i8 %2, 1
  %tobool3.not.i = icmp eq i8 %3, 0
  br i1 %tobool3.not.i, label %if.end6.i, label %if.then4.i

if.then4.i:                                       ; preds = %lor.lhs.false.i, %if.end.i
  %conv.i.i.i = sext i32 %row to i64
  %div2.i.i.i = lshr i64 %conv.i.i.i, 6
  %arrayidx.i.i.i = getelementptr inbounds i64, ptr %0, i64 %div2.i.i.i
  %4 = load i64, ptr %arrayidx.i.i.i, align 8
  %and.i.i.i = and i64 %conv.i.i.i, 63
  %shl.i.i.i = shl nuw i64 1, %and.i.i.i
  %and2.i.i.i = and i64 %4, %shl.i.i.i
  %tobool.i.not.i.i = icmp eq i64 %and2.i.i.i, 0
  br i1 %tobool.i.not.i.i, label %if.end, label %if.then

if.end6.i:                                        ; preds = %lor.lhs.false.i
  %isConstantMapping_.i = getelementptr inbounds i8, ptr %this.0.val, i64 59
  %5 = load i8, ptr %isConstantMapping_.i, align 1
  %6 = and i8 %5, 1
  %tobool7.not.i = icmp eq i8 %6, 0
  br i1 %tobool7.not.i, label %_ZNK8facebook5velox13DecodedVector8isNullAtEi.exit, label %if.then8.i

if.then8.i:                                       ; preds = %if.end6.i
  %7 = load i64, ptr %0, align 8
  %and2.i.i2.i = and i64 %7, 1
  %tobool.i.not.i3.i = icmp eq i64 %and2.i.i2.i, 0
  br i1 %tobool.i.not.i3.i, label %if.end, label %if.then

_ZNK8facebook5velox13DecodedVector8isNullAtEi.exit: ; preds = %if.end6.i
  %indices_.i = getelementptr inbounds i8, ptr %this.0.val, i64 8
  %8 = load ptr, ptr %indices_.i, align 8
  %idxprom.i = sext i32 %row to i64
  %arrayidx.i = getelementptr inbounds i32, ptr %8, i64 %idxprom.i
  %9 = load i32, ptr %arrayidx.i, align 4
  %conv.i.i4.i = sext i32 %9 to i64
  %div2.i.i5.i = lshr i64 %conv.i.i4.i, 6
  %arrayidx.i.i6.i = getelementptr inbounds i64, ptr %0, i64 %div2.i.i5.i
  %10 = load i64, ptr %arrayidx.i.i6.i, align 8
  %and.i.i7.i = and i64 %conv.i.i4.i, 63
  %shl.i.i8.i = shl nuw i64 1, %and.i.i7.i
  %and2.i.i9.i = and i64 %shl.i.i8.i, %10
  %tobool.i.not.i10.i = icmp eq i64 %and2.i.i9.i, 0
  br i1 %tobool.i.not.i10.i, label %if.end, label %if.then

if.then:                                          ; preds = %entry, %if.then8.i, %if.then4.i, %_ZNK8facebook5velox13DecodedVector8isNullAtEi.exit
  %11 = and i8 %.pre, 1
  %tobool.not.i3 = icmp eq i8 %11, 0
  br i1 %tobool.not.i3, label %if.end.i5, label %_ZNK8facebook5velox13DecodedVector5indexEi.exit

if.end.i5:                                        ; preds = %if.then
  %isConstantMapping_.i6 = getelementptr inbounds i8, ptr %this.0.val, i64 59
  %12 = load i8, ptr %isConstantMapping_.i6, align 1
  %13 = and i8 %12, 1
  %tobool2.not.i7 = icmp eq i8 %13, 0
  br i1 %tobool2.not.i7, label %if.end4.i, label %if.then3.i

if.then3.i:                                       ; preds = %if.end.i5
  %constantIndex_.i = getelementptr inbounds i8, ptr %this.0.val, i64 64
  %14 = load i32, ptr %constantIndex_.i, align 8
  br label %_ZNK8facebook5velox13DecodedVector5indexEi.exit

if.end4.i:                                        ; preds = %if.end.i5
  %indices_.i8 = getelementptr inbounds i8, ptr %this.0.val, i64 8
  %15 = load ptr, ptr %indices_.i8, align 8
  %idxprom.i9 = sext i32 %row to i64
  %arrayidx.i10 = getelementptr inbounds i32, ptr %15, i64 %idxprom.i9
  %16 = load i32, ptr %arrayidx.i10, align 4
  br label %_ZNK8facebook5velox13DecodedVector5indexEi.exit

_ZNK8facebook5velox13DecodedVector5indexEi.exit:  ; preds = %if.then, %if.then3.i, %if.end4.i
  %retval.0.i4 = phi i32 [ %14, %if.then3.i ], [ %16, %if.end4.i ], [ %row, %if.then ]
  %17 = load ptr, ptr %this.8.val, align 8
  %rem.i.i.i = and i32 %retval.0.i4, 7
  %shl.i.i.i11 = shl nuw nsw i32 1, %rem.i.i.i
  %div2.i.i.i12 = lshr i32 %retval.0.i4, 3
  %idxprom.i.i.i = zext nneg i32 %div2.i.i.i12 to i64
  %arrayidx.i.i.i13 = getelementptr inbounds i8, ptr %17, i64 %idxprom.i.i.i
  %18 = load i8, ptr %arrayidx.i.i.i13, align 1
  %19 = trunc i32 %shl.i.i.i11 to i8
  %conv1.i.i.i = or i8 %18, %19
  store i8 %conv1.i.i.i, ptr %arrayidx.i.i.i13, align 1
  %_M_engaged.i.i.i.i = getelementptr inbounds i8, ptr %this.8.val, i64 37
  %20 = load i8, ptr %_M_engaged.i.i.i.i, align 1
  %21 = and i8 %20, 1
  %tobool.not.i.i.i.i = icmp eq i8 %21, 0
  br i1 %tobool.not.i.i.i.i, label %if.end, label %if.then.i.i.i.i

if.then.i.i.i.i:                                  ; preds = %_ZNK8facebook5velox13DecodedVector5indexEi.exit
  store i8 0, ptr %_M_engaged.i.i.i.i, align 1
  br label %if.end

if.end:                                           ; preds = %if.then.i.i.i.i, %_ZNK8facebook5velox13DecodedVector5indexEi.exit, %if.then8.i, %if.then4.i, %_ZNK8facebook5velox13DecodedVector8isNullAtEi.exit
  ret void
}